; Function Attrs: mustprogress nofree norecurse nosync nounwind willreturn memory(argmem: read) uwtable
define internal fastcc range(i32 0, 2) i32 @fdt_blocks_misordered_(ptr noundef readonly captures(none) %0, i32 noundef %1, i32 noundef %2) unnamed_addr #7 {
  %4 = getelementptr inbounds nuw i8, ptr %0, i64 16
  %5 = load i8, ptr %4, align 1
  %6 = zext i8 %5 to i32
  %7 = shl nuw i32 %6, 24
  %8 = getelementptr inbounds nuw i8, ptr %0, i64 17
  %9 = load i8, ptr %8, align 1
  %10 = zext i8 %9 to i32
  %11 = shl nuw nsw i32 %10, 16
  %12 = or disjoint i32 %11, %7
  %13 = getelementptr inbounds nuw i8, ptr %0, i64 18
  %14 = load i8, ptr %13, align 1
  %15 = zext i8 %14 to i32
  %16 = shl nuw nsw i32 %15, 8
  %17 = or disjoint i32 %12, %16
  %18 = getelementptr inbounds nuw i8, ptr %0, i64 19
  %19 = load i8, ptr %18, align 1
  %20 = zext i8 %19 to i32
  %21 = or disjoint i32 %17, %20
  %22 = icmp ult i32 %21, 40
  br i1 %22, label %105, label %23

23:                                               ; preds = %3
  %24 = getelementptr inbounds nuw i8, ptr %0, i64 8
  %25 = load i8, ptr %24, align 1
  %26 = zext i8 %25 to i32
  %27 = shl nuw i32 %26, 24
  %28 = getelementptr inbounds nuw i8, ptr %0, i64 9
  %29 = load i8, ptr %28, align 1
  %30 = zext i8 %29 to i32
  %31 = shl nuw nsw i32 %30, 16
  %32 = or disjoint i32 %31, %27
  %33 = getelementptr inbounds nuw i8, ptr %0, i64 10
  %34 = load i8, ptr %33, align 1
  %35 = zext i8 %34 to i32
  %36 = shl nuw nsw i32 %35, 8
  %37 = or disjoint i32 %32, %36
  %38 = getelementptr inbounds nuw i8, ptr %0, i64 11
  %39 = load i8, ptr %38, align 1
  %40 = zext i8 %39 to i32
  %41 = or disjoint i32 %37, %40
  %42 = add i32 %21, %1
  %43 = icmp ult i32 %41, %42
  br i1 %43, label %105, label %44

44:                                               ; preds = %23
  %45 = getelementptr inbounds nuw i8, ptr %0, i64 12
  %46 = load i8, ptr %45, align 1
  %47 = zext i8 %46 to i32
  %48 = shl nuw i32 %47, 24
  %49 = getelementptr inbounds nuw i8, ptr %0, i64 13
  %50 = load i8, ptr %49, align 1
  %51 = zext i8 %50 to i32
  %52 = shl nuw nsw i32 %51, 16
  %53 = or disjoint i32 %52, %48
  %54 = getelementptr inbounds nuw i8, ptr %0, i64 14
  %55 = load i8, ptr %54, align 1
  %56 = zext i8 %55 to i32
  %57 = shl nuw nsw i32 %56, 8
  %58 = or disjoint i32 %53, %57
  %59 = getelementptr inbounds nuw i8, ptr %0, i64 15
  %60 = load i8, ptr %59, align 1
  %61 = zext i8 %60 to i32
  %62 = or disjoint i32 %58, %61
  %63 = add i32 %41, %2
  %64 = icmp ult i32 %62, %63
  br i1 %64, label %105, label %65

65:                                               ; preds = %44
  %66 = getelementptr inbounds nuw i8, ptr %0, i64 4
  %67 = load i8, ptr %66, align 1
  %68 = zext i8 %67 to i32
  %69 = shl nuw i32 %68, 24
  %70 = getelementptr inbounds nuw i8, ptr %0, i64 5
  %71 = load i8, ptr %70, align 1
  %72 = zext i8 %71 to i32
  %73 = shl nuw nsw i32 %72, 16
  %74 = or disjoint i32 %73, %69
  %75 = getelementptr inbounds nuw i8, ptr %0, i64 6
  %76 = load i8, ptr %75, align 1
  %77 = zext i8 %76 to i32
  %78 = shl nuw nsw i32 %77, 8
  %79 = or disjoint i32 %74, %78
  %80 = getelementptr inbounds nuw i8, ptr %0, i64 7
  %81 = load i8, ptr %80, align 1
  %82 = zext i8 %81 to i32
  %83 = or disjoint i32 %79, %82
  %84 = getelementptr inbounds nuw i8, ptr %0, i64 32
  %85 = load i8, ptr %84, align 1
  %86 = zext i8 %85 to i32
  %87 = shl nuw i32 %86, 24
  %88 = getelementptr inbounds nuw i8, ptr %0, i64 33
  %89 = load i8, ptr %88, align 1
  %90 = zext i8 %89 to i32
  %91 = shl nuw nsw i32 %90, 16
  %92 = or disjoint i32 %91, %87
  %93 = getelementptr inbounds nuw i8, ptr %0, i64 34
  %94 = load i8, ptr %93, align 1
  %95 = zext i8 %94 to i32
  %96 = shl nuw nsw i32 %95, 8
  %97 = or disjoint i32 %92, %96
  %98 = getelementptr inbounds nuw i8, ptr %0, i64 35
  %99 = load i8, ptr %98, align 1
  %100 = zext i8 %99 to i32
  %101 = or disjoint i32 %97, %100
  %102 = add i32 %101, %62
  %103 = icmp ult i32 %83, %102
  %104 = zext i1 %103 to i32
  br label %105

105:                                              ; preds = %65, %44, %23, %3
  %106 = phi i32 [ 1, %44 ], [ 1, %23 ], [ 1, %3 ], [ %104, %65 ]
  ret i32 %106
}